target datalayout = "e-m:e-p270:32:32-p271:32:32-p272:64:64-i64:64-i128:128-f80:128-n8:16:32:64-S128"
target triple = "x86_64-pc-linux-gnu"

%struct._zend_op_array = type { i8, [3 x i8], i32, ptr, ptr, ptr, i32, i32, ptr, ptr, ptr, ptr, i32, i32, i32, i32, ptr, ptr, ptr, ptr, ptr, i32, i32, ptr, ptr, ptr, i32, i32, i32, i32, ptr, ptr, [6 x ptr] }
%struct._zend_op = type { ptr, %union._znode_op, %union._znode_op, %union._znode_op, i32, i32, i8, i8, i8, i8 }
%union._znode_op = type { i32 }
%struct._zend_ssa = type { %struct._zend_cfg, i32, i32, ptr, ptr, ptr, ptr }
%struct._zend_cfg = type { i32, i32, ptr, ptr, ptr, i32 }
%struct._zend_ssa_var = type { i32, i32, i32, i32, ptr, ptr, ptr, i8 }

@.str = private unnamed_addr constant [4 x i8] c"PHI\00", align 1
@.str.1 = private unnamed_addr constant [114 x i8] c"Narrowing occurred during type inference of %s. Please file a bug report on https://github.com/php/php-src/issues\00", align 1

; Function Attrs: nounwind uwtable
define internal void @emit_type_narrowing_warning(ptr noundef %0, ptr noundef %1, i32 noundef %2) #0 {
  %4 = alloca ptr, align 8
  %5 = alloca ptr, align 8
  %6 = alloca i32, align 4
  %7 = alloca i32, align 4
  %8 = alloca ptr, align 8
  %9 = alloca ptr, align 8
  %10 = alloca i32, align 4
  store ptr %0, ptr %4, align 8
  store ptr %1, ptr %5, align 8
  store i32 %2, ptr %6, align 4
  %11 = load ptr, ptr %5, align 8
  %12 = getelementptr inbounds %struct._zend_ssa, ptr %11, i32 0, i32 5
  %13 = load ptr, ptr %12, align 8
  %14 = load i32, ptr %6, align 4
  %15 = sext i32 %14 to i64
  %16 = getelementptr inbounds %struct._zend_ssa_var, ptr %13, i64 %15
  %17 = getelementptr inbounds %struct._zend_ssa_var, ptr %16, i32 0, i32 2
  %18 = load i32, ptr %17, align 8
  store i32 %18, ptr %7, align 4
  %19 = load i32, ptr %7, align 4
  %20 = icmp sge i32 %19, 0
  br i1 %20, label %21, label %28

21:                                               ; preds = %3
  %22 = load ptr, ptr %4, align 8
  %23 = getelementptr inbounds %struct._zend_op_array, ptr %22, i32 0, i32 16
  %24 = load ptr, ptr %23, align 8
  %25 = load i32, ptr %7, align 4
  %26 = sext i32 %25 to i64
  %27 = getelementptr inbounds %struct._zend_op, ptr %24, i64 %26
  br label %29

28:                                               ; preds = %3
  br label %29

29:                                               ; preds = %28, %21
  %30 = phi ptr [ %27, %21 ], [ null, %28 ]
  store ptr %30, ptr %8, align 8
  %31 = load ptr, ptr %8, align 8
  %32 = icmp ne ptr %31, null
  br i1 %32, label %33, label %38

33:                                               ; preds = %29
  %34 = load ptr, ptr %8, align 8
  %35 = getelementptr inbounds %struct._zend_op, ptr %34, i32 0, i32 6
  %36 = load i8, ptr %35, align 4
  %37 = call ptr @zend_get_opcode_name(i8 noundef zeroext %36)
  br label %39

38:                                               ; preds = %29
  br label %39

39:                                               ; preds = %38, %33
  %40 = phi ptr [ %37, %33 ], [ @.str, %38 ]
  store ptr %40, ptr %9, align 8
  %41 = load ptr, ptr %8, align 8
  %42 = icmp ne ptr %41, null
  br i1 %42, label %43, label %47

43:                                               ; preds = %39
  %44 = load ptr, ptr %8, align 8
  %45 = getelementptr inbounds %struct._zend_op, ptr %44, i32 0, i32 5
  %46 = load i32, ptr %45, align 8
  br label %48

47:                                               ; preds = %39
  br label %48

48:                                               ; preds = %47, %43
  %49 = phi i32 [ %46, %43 ], [ 0, %47 ]
  store i32 %49, ptr %10, align 4
  %50 = load ptr, ptr %4, align 8
  %51 = getelementptr inbounds %struct._zend_op_array, ptr %50, i32 0, i32 25
  %52 = load ptr, ptr %51, align 8
  %53 = load i32, ptr %10, align 4
  %54 = load ptr, ptr %9, align 8
  call void (i32, ptr, i32, ptr, ...) @zend_error_at(i32 noundef 2, ptr noundef %52, i32 noundef %53, ptr noundef @.str.1, ptr noundef %54)
  ret void
}