; Function Attrs: nounwind uwtable
define internal fastcc void @emit_type_narrowing_warning(ptr nocapture noundef readonly %0, ptr nocapture readonly %.64.val, i32 noundef %1) unnamed_addr #0 {
  %3 = zext nneg i32 %1 to i64
  %4 = getelementptr inbounds %struct._zend_ssa_var, ptr %.64.val, i64 %3, i32 2
  %5 = load i32, ptr %4, align 8
  %6 = icmp sgt i32 %5, -1
  br i1 %6, label %7, label %.thread3

7:                                                ; preds = %2
  %8 = getelementptr inbounds i8, ptr %0, i64 88
  %9 = load ptr, ptr %8, align 8
  %.not = icmp eq ptr %9, null
  br i1 %.not, label %.thread3, label %10

10:                                               ; preds = %7
  %11 = zext nneg i32 %5 to i64
  %12 = getelementptr inbounds %struct._zend_op, ptr %9, i64 %11
  %13 = getelementptr inbounds i8, ptr %12, i64 28
  %14 = load i8, ptr %13, align 4
  %15 = tail call ptr @zend_get_opcode_name(i8 noundef zeroext %14) #19
  %16 = getelementptr inbounds i8, ptr %12, i64 24
  %17 = load i32, ptr %16, align 8
  br label %.thread3

.thread3:                                         ; preds = %2, %7, %10
  %18 = phi ptr [ %15, %10 ], [ @.str, %7 ], [ @.str, %2 ]
  %19 = phi i32 [ %17, %10 ], [ 0, %7 ], [ 0, %2 ]
  %20 = getelementptr inbounds i8, ptr %0, i64 152
  %21 = load ptr, ptr %20, align 8
  tail call void (i32, ptr, i32, ptr, ...) @zend_error_at(i32 noundef 2, ptr noundef %21, i32 noundef %19, ptr noundef nonnull @.str.1, ptr noundef %18) #19
  ret void
}